target datalayout = "e-m:e-p270:32:32-p271:32:32-p272:64:64-i64:64-i128:128-f80:128-n8:16:32:64-S128"
target triple = "x86_64-pc-linux-gnu"

%struct.unw_proc_info_t = type { i64, i64, i64, i64, i64, i64, i32, i32, i64, i64 }

@stderr = external global ptr, align 8
@.str.7 = private unnamed_addr constant [56 x i8] c"libunwind: _Unwind_GetRegionStart(context=%p) => 0x%lx\0A\00", align 1

; Function Attrs: uwtable
define dso_local i64 @_Unwind_GetRegionStart(ptr noundef %0) #0 {
  %2 = alloca ptr, align 8
  %3 = alloca ptr, align 8
  %4 = alloca %struct.unw_proc_info_t, align 8
  %5 = alloca i64, align 8
  store ptr %0, ptr %2, align 8, !tbaa !31
  call void @llvm.lifetime.start.p0(i64 8, ptr %3) #5
  %6 = load ptr, ptr %2, align 8, !tbaa !31
  store ptr %6, ptr %3, align 8, !tbaa !19
  call void @llvm.lifetime.start.p0(i64 72, ptr %4) #5
  call void @llvm.lifetime.start.p0(i64 8, ptr %5) #5
  store i64 0, ptr %5, align 8, !tbaa !25
  %7 = load ptr, ptr %3, align 8, !tbaa !19
  %8 = call i32 @__unw_get_proc_info(ptr noundef %7, ptr noundef %4)
  %9 = icmp eq i32 %8, 0
  br i1 %9, label %10, label %13

10:                                               ; preds = %1
  %11 = getelementptr inbounds nuw %struct.unw_proc_info_t, ptr %4, i32 0, i32 0
  %12 = load i64, ptr %11, align 8, !tbaa !23
  store i64 %12, ptr %5, align 8, !tbaa !25
  br label %13

13:                                               ; preds = %10, %1
  br label %14

14:                                               ; preds = %13
  %15 = call zeroext i1 @logAPIs()
  br i1 %15, label %16, label %26

16:                                               ; preds = %14
  br label %17

17:                                               ; preds = %16
  %18 = load ptr, ptr @stderr, align 8, !tbaa !9
  %19 = load ptr, ptr %2, align 8, !tbaa !31
  %20 = load i64, ptr %5, align 8, !tbaa !25
  %21 = call i32 (ptr, ptr, ...) @fprintf(ptr noundef %18, ptr noundef @.str.7, ptr noundef %19, i64 noundef %20) #5
  %22 = load ptr, ptr @stderr, align 8, !tbaa !9
  %23 = call i32 @fflush(ptr noundef %22)
  br label %24

24:                                               ; preds = %17
  br label %25

25:                                               ; preds = %24
  br label %26

26:                                               ; preds = %25, %14
  br label %27

27:                                               ; preds = %26
  br label %28

28:                                               ; preds = %27
  %29 = load i64, ptr %5, align 8, !tbaa !25
  call void @llvm.lifetime.end.p0(i64 8, ptr %5) #5
  call void @llvm.lifetime.end.p0(i64 72, ptr %4) #5
  call void @llvm.lifetime.end.p0(i64 8, ptr %3) #5
  ret i64 %29
}