; Function Attrs: uwtable
define dso_local i64 @_Unwind_GetRegionStart(ptr noundef %0) local_unnamed_addr #0 {
  %2 = alloca %struct.unw_proc_info_t, align 8
  call void @llvm.lifetime.start.p0(i64 72, ptr nonnull %2) #8
  %3 = call i32 @__unw_get_proc_info(ptr noundef %0, ptr noundef nonnull %2)
  %4 = icmp eq i32 %3, 0
  %5 = load i64, ptr %2, align 8
  %spec.select = select i1 %4, i64 %5, i64 0
  %6 = call zeroext i1 @logAPIs()
  br i1 %6, label %7, label %12

7:                                                ; preds = %1
  %8 = load ptr, ptr @stderr, align 8, !tbaa !4
  %9 = call i32 (ptr, ptr, ...) @fprintf(ptr noundef %8, ptr noundef nonnull @.str.7, ptr noundef %0, i64 noundef %spec.select) #7
  %10 = load ptr, ptr @stderr, align 8, !tbaa !4
  %11 = call i32 @fflush(ptr noundef %10)
  br label %12

12:                                               ; preds = %7, %1
  call void @llvm.lifetime.end.p0(i64 72, ptr nonnull %2) #8
  ret i64 %spec.select
}